target datalayout = "e-m:e-p270:32:32-p271:32:32-p272:64:64-i64:64-i128:128-f80:128-n8:16:32:64-S128"
target triple = "x86_64-pc-linux-gnu"

%struct.strbuf = type { i64, i64, ptr }
%struct.pathspec_magic = type { i32, i8, ptr }

@.str = private unnamed_addr constant [3 x i8] c", \00", align 1
@.str.1 = private unnamed_addr constant [22 x i8] c"'%s' (mnemonic: '%c')\00", align 1
@.str.2 = private unnamed_addr constant [5 x i8] c"'%s'\00", align 1
@.str.21 = private unnamed_addr constant [1 x i8] zeroinitializer, align 1
@git_gettext_enabled = external global i32, align 4

; Function Attrs: inlinehint nounwind uwtable
define internal ptr @_(ptr noundef %0) #3 {
  %2 = alloca ptr, align 8
  %3 = alloca ptr, align 8
  store ptr %0, ptr %3, align 8, !tbaa !11
  %4 = load ptr, ptr %3, align 8, !tbaa !11
  %5 = load i8, ptr %4, align 1, !tbaa !18
  %6 = icmp ne i8 %5, 0
  br i1 %6, label %8, label %7

7:                                                ; preds = %1
  store ptr @.str.21, ptr %2, align 8
  br label %16

8:                                                ; preds = %1
  %9 = load i32, ptr @git_gettext_enabled, align 4, !tbaa !13
  %10 = icmp ne i32 %9, 0
  br i1 %10, label %13, label %11

11:                                               ; preds = %8
  %12 = load ptr, ptr %3, align 8, !tbaa !11
  store ptr %12, ptr %2, align 8
  br label %16

13:                                               ; preds = %8
  %14 = load ptr, ptr %3, align 8, !tbaa !11
  %15 = call ptr @dcgettext(ptr noundef null, ptr noundef %14, i32 noundef 5) #10
  store ptr %15, ptr %2, align 8
  br label %16

16:                                               ; preds = %13, %11, %7
  %17 = load ptr, ptr %2, align 8
  ret ptr %17
}

; Function Attrs: inlinehint nounwind uwtable
define internal void @strbuf_addstr(ptr noundef %0, ptr noundef %1) #3 {
  %3 = alloca ptr, align 8
  %4 = alloca ptr, align 8
  store ptr %0, ptr %3, align 8, !tbaa !58
  store ptr %1, ptr %4, align 8, !tbaa !11
  %5 = load ptr, ptr %3, align 8, !tbaa !58
  %6 = load ptr, ptr %4, align 8, !tbaa !11
  %7 = load ptr, ptr %4, align 8, !tbaa !11
  %8 = call i64 @strlen(ptr noundef %7) #11
  call void @strbuf_add(ptr noundef %5, ptr noundef %6, i64 noundef %8)
  ret void
}

; Function Attrs: nounwind uwtable
define dso_local void @pathspec_magic_names(i32 noundef %0, ptr noundef %1) #0 {
  %3 = alloca i32, align 4
  %4 = alloca ptr, align 8
  %5 = alloca i32, align 4
  %6 = alloca ptr, align 8
  %7 = alloca i32, align 4
  store i32 %0, ptr %3, align 4, !tbaa !13
  store ptr %1, ptr %4, align 8, !tbaa !58
  call void @llvm.lifetime.start.p0(i64 4, ptr %5) #10
  store i32 0, ptr %5, align 4, !tbaa !13
  br label %8

8:                                                ; preds = %54, %2
  %9 = load i32, ptr %5, align 4, !tbaa !13
  %10 = sext i32 %9 to i64
  %11 = icmp ult i64 %10, 6
  br i1 %11, label %12, label %57

12:                                               ; preds = %8
  call void @llvm.lifetime.start.p0(i64 8, ptr %6) #10
  %13 = load i32, ptr %5, align 4, !tbaa !13
  %14 = sext i32 %13 to i64
  %15 = getelementptr inbounds %struct.pathspec_magic, ptr @pathspec_magic, i64 %14
  store ptr %15, ptr %6, align 8, !tbaa !60
  %16 = load i32, ptr %3, align 4, !tbaa !13
  %17 = load ptr, ptr %6, align 8, !tbaa !60
  %18 = getelementptr inbounds nuw %struct.pathspec_magic, ptr %17, i32 0, i32 0
  %19 = load i32, ptr %18, align 8, !tbaa !62
  %20 = and i32 %16, %19
  %21 = icmp ne i32 %20, 0
  br i1 %21, label %23, label %22

22:                                               ; preds = %12
  store i32 4, ptr %7, align 4
  br label %51

23:                                               ; preds = %12
  %24 = load ptr, ptr %4, align 8, !tbaa !58
  %25 = getelementptr inbounds nuw %struct.strbuf, ptr %24, i32 0, i32 1
  %26 = load i64, ptr %25, align 8, !tbaa !64
  %27 = icmp ne i64 %26, 0
  br i1 %27, label %28, label %30

28:                                               ; preds = %23
  %29 = load ptr, ptr %4, align 8, !tbaa !58
  call void @strbuf_addstr(ptr noundef %29, ptr noundef @.str)
  br label %30

30:                                               ; preds = %28, %23
  %31 = load ptr, ptr %6, align 8, !tbaa !60
  %32 = getelementptr inbounds nuw %struct.pathspec_magic, ptr %31, i32 0, i32 1
  %33 = load i8, ptr %32, align 4, !tbaa !66
  %34 = icmp ne i8 %33, 0
  br i1 %34, label %35, label %45

35:                                               ; preds = %30
  %36 = load ptr, ptr %4, align 8, !tbaa !58
  %37 = call ptr @_(ptr noundef @.str.1)
  %38 = load ptr, ptr %6, align 8, !tbaa !60
  %39 = getelementptr inbounds nuw %struct.pathspec_magic, ptr %38, i32 0, i32 2
  %40 = load ptr, ptr %39, align 8, !tbaa !67
  %41 = load ptr, ptr %6, align 8, !tbaa !60
  %42 = getelementptr inbounds nuw %struct.pathspec_magic, ptr %41, i32 0, i32 1
  %43 = load i8, ptr %42, align 4, !tbaa !66
  %44 = sext i8 %43 to i32
  call void (ptr, ptr, ...) @strbuf_addf(ptr noundef %36, ptr noundef %37, ptr noundef %40, i32 noundef %44)
  br label %50

45:                                               ; preds = %30
  %46 = load ptr, ptr %4, align 8, !tbaa !58
  %47 = load ptr, ptr %6, align 8, !tbaa !60
  %48 = getelementptr inbounds nuw %struct.pathspec_magic, ptr %47, i32 0, i32 2
  %49 = load ptr, ptr %48, align 8, !tbaa !67
  call void (ptr, ptr, ...) @strbuf_addf(ptr noundef %46, ptr noundef @.str.2, ptr noundef %49)
  br label %50

50:                                               ; preds = %45, %35
  store i32 0, ptr %7, align 4
  br label %51

51:                                               ; preds = %50, %22
  call void @llvm.lifetime.end.p0(i64 8, ptr %6) #10
  %52 = load i32, ptr %7, align 4
  switch i32 %52, label %58 [
    i32 0, label %53
    i32 4, label %54
  ]

53:                                               ; preds = %51
  br label %54

54:                                               ; preds = %53, %51
  %55 = load i32, ptr %5, align 4, !tbaa !13
  %56 = add nsw i32 %55, 1
  store i32 %56, ptr %5, align 4, !tbaa !13
  br label %8, !llvm.loop !68

57:                                               ; preds = %8
  call void @llvm.lifetime.end.p0(i64 4, ptr %5) #10
  ret void

58:                                               ; preds = %51
  unreachable
}