; Function Attrs: nounwind uwtable
define dso_local void @pathspec_magic_names(i32 noundef %0, ptr noundef %1) local_unnamed_addr #0 {
  %3 = getelementptr inbounds nuw i8, ptr %1, i64 8
  br label %4

4:                                                ; preds = %2, %24
  %indvars.iv = phi i64 [ 0, %2 ], [ %indvars.iv.next, %24 ]
  %5 = getelementptr inbounds nuw %struct.pathspec_magic, ptr @pathspec_magic, i64 %indvars.iv
  %6 = load i32, ptr %5, align 16, !tbaa !54
  %7 = and i32 %6, %0
  %.not = icmp eq i32 %7, 0
  br i1 %.not, label %24, label %8

8:                                                ; preds = %4
  %9 = load i64, ptr %3, align 8, !tbaa !56
  %.not13 = icmp eq i64 %9, 0
  br i1 %.not13, label %11, label %10

10:                                               ; preds = %8
  tail call void @strbuf_add(ptr noundef nonnull %1, ptr noundef nonnull @.str, i64 noundef 2) #17
  br label %11

11:                                               ; preds = %10, %8
  %12 = getelementptr inbounds nuw i8, ptr %5, i64 4
  %13 = load i8, ptr %12, align 4, !tbaa !58
  %.not14 = icmp eq i8 %13, 0
  br i1 %.not14, label %21, label %14

14:                                               ; preds = %11
  %15 = load i32, ptr @git_gettext_enabled, align 4, !tbaa !34
  %.not4.i = icmp eq i32 %15, 0
  br i1 %.not4.i, label %_.exit, label %16

16:                                               ; preds = %14
  %17 = tail call ptr @dcgettext(ptr noundef null, ptr noundef nonnull @.str.1, i32 noundef 5) #17
  br label %_.exit

_.exit:                                           ; preds = %14, %16
  %.0.i = phi ptr [ %17, %16 ], [ @.str.1, %14 ]
  %18 = getelementptr inbounds nuw i8, ptr %5, i64 8
  %19 = load ptr, ptr %18, align 8, !tbaa !59
  %20 = sext i8 %13 to i32
  tail call void (ptr, ptr, ...) @strbuf_addf(ptr noundef nonnull %1, ptr noundef %.0.i, ptr noundef %19, i32 noundef %20) #17
  br label %24

21:                                               ; preds = %11
  %22 = getelementptr inbounds nuw i8, ptr %5, i64 8
  %23 = load ptr, ptr %22, align 8, !tbaa !59
  tail call void (ptr, ptr, ...) @strbuf_addf(ptr noundef nonnull %1, ptr noundef nonnull @.str.2, ptr noundef %23) #17
  br label %24

24:                                               ; preds = %_.exit, %21, %4
  %indvars.iv.next = add nuw nsw i64 %indvars.iv, 1
  %exitcond.not = icmp eq i64 %indvars.iv.next, 6
  br i1 %exitcond.not, label %25, label %4, !llvm.loop !60

25:                                               ; preds = %24
  ret void
}